target datalayout = "e-m:e-p270:32:32-p271:32:32-p272:64:64-i64:64-i128:128-f80:128-n8:16:32:64-S128"
target triple = "x86_64-pc-linux-gnu"

%struct.dt_import_session_t = type { i32, ptr, ptr, ptr, ptr }
%struct.dt_variables_params_t = type { ptr, ptr, i32, i32, ptr, i32, i32, ptr }

; Function Attrs: nounwind uwtable
define void @dt_import_session_set_name(ptr noundef %0, ptr noundef %1) #0 {
  %3 = alloca ptr, align 8
  %4 = alloca ptr, align 8
  store ptr %0, ptr %3, align 8, !tbaa !6
  store ptr %1, ptr %4, align 8, !tbaa !64
  %5 = load ptr, ptr %3, align 8, !tbaa !6
  %6 = getelementptr inbounds nuw %struct.dt_import_session_t, ptr %5, i32 0, i32 2
  %7 = load ptr, ptr %6, align 8, !tbaa !17
  %8 = getelementptr inbounds nuw %struct.dt_variables_params_t, ptr %7, i32 0, i32 1
  %9 = load ptr, ptr %8, align 8, !tbaa !65
  call void @g_free(ptr noundef %9)
  %10 = load ptr, ptr %4, align 8, !tbaa !64
  %11 = call noalias ptr @g_strdup(ptr noundef %10)
  %12 = load ptr, ptr %3, align 8, !tbaa !6
  %13 = getelementptr inbounds nuw %struct.dt_import_session_t, ptr %12, i32 0, i32 2
  %14 = load ptr, ptr %13, align 8, !tbaa !17
  %15 = getelementptr inbounds nuw %struct.dt_variables_params_t, ptr %14, i32 0, i32 1
  store ptr %11, ptr %15, align 8, !tbaa !65
  ret void
}