; Function Attrs: nounwind uwtable
define void @dt_import_session_set_name(ptr noundef readonly captures(none) %0, ptr noundef %1) local_unnamed_addr #0 {
  %3 = getelementptr inbounds nuw i8, ptr %0, i64 16
  %4 = load ptr, ptr %3, align 8, !tbaa !15
  %5 = getelementptr inbounds nuw i8, ptr %4, i64 8
  %6 = load ptr, ptr %5, align 8, !tbaa !61
  tail call void @g_free(ptr noundef %6) #9
  %7 = tail call noalias ptr @g_strdup(ptr noundef %1) #9
  %8 = load ptr, ptr %3, align 8, !tbaa !15
  %9 = getelementptr inbounds nuw i8, ptr %8, i64 8
  store ptr %7, ptr %9, align 8, !tbaa !61
  ret void
}